target datalayout = "e-m:e-p270:32:32-p271:32:32-p272:64:64-i64:64-i128:128-f80:128-n8:16:32:64-S128"
target triple = "x86_64-pc-linux-gnu"

%struct.SEIRawMessage = type { i32, i32, ptr, ptr, ptr, i64 }
%struct.SEIRawMessageList = type { ptr, i32, i32 }
%struct.H264RawSEI = type { %struct.H264RawNALUnitHeader, %struct.SEIRawMessageList }
%struct.H264RawNALUnitHeader = type { i8, i8, i8, i8 }
%struct.H265RawSEI = type { %struct.H265RawNALUnitHeader, %struct.SEIRawMessageList }
%struct.H265RawNALUnitHeader = type { i8, i8, i8 }
%struct.H266RawSEI = type { %struct.H266RawNALUnitHeader, %struct.SEIRawMessageList }
%struct.H266RawNALUnitHeader = type { i8, i8, i8, i8 }
%struct.CodedBitstreamContext = type { ptr, ptr, ptr, ptr, i32, i32, i32, ptr, ptr, ptr, ptr, i64 }
%struct.CodedBitstreamType = type { i32, ptr, i64, ptr, ptr, ptr, ptr, ptr, ptr, ptr, ptr }
%struct.CodedBitstreamFragment = type { ptr, i64, i64, ptr, i32, i32, ptr }
%struct.CodedBitstreamUnit = type { i32, ptr, i64, i64, ptr, ptr, ptr }

; Function Attrs: nounwind uwtable
define internal i32 @cbs_sei_get_message_list(ptr noundef %0, ptr noundef %1, ptr noundef %2) #0 {
  %4 = alloca i32, align 4
  %5 = alloca ptr, align 8
  %6 = alloca ptr, align 8
  %7 = alloca ptr, align 8
  %8 = alloca ptr, align 8
  %9 = alloca i32, align 4
  %10 = alloca ptr, align 8
  %11 = alloca ptr, align 8
  store ptr %0, ptr %5, align 8, !tbaa !37
  store ptr %1, ptr %6, align 8, !tbaa !41
  store ptr %2, ptr %7, align 8, !tbaa !72
  %12 = load ptr, ptr %5, align 8, !tbaa !37
  %13 = getelementptr inbounds nuw %struct.CodedBitstreamContext, ptr %12, i32 0, i32 1
  %14 = load ptr, ptr %13, align 8, !tbaa !46
  %15 = getelementptr inbounds nuw %struct.CodedBitstreamType, ptr %14, i32 0, i32 0
  %16 = load i32, ptr %15, align 8, !tbaa !50
  switch i32 %16, label %75 [
    i32 27, label %17
    i32 173, label %33
    i32 196, label %54
  ]

17:                                               ; preds = %3
  call void @llvm.lifetime.start.p0(i64 8, ptr %8) #7
  %18 = load ptr, ptr %6, align 8, !tbaa !41
  %19 = getelementptr inbounds nuw %struct.CodedBitstreamUnit, ptr %18, i32 0, i32 5
  %20 = load ptr, ptr %19, align 8, !tbaa !65
  store ptr %20, ptr %8, align 8, !tbaa !74
  %21 = load ptr, ptr %6, align 8, !tbaa !41
  %22 = getelementptr inbounds nuw %struct.CodedBitstreamUnit, ptr %21, i32 0, i32 0
  %23 = load i32, ptr %22, align 8, !tbaa !58
  %24 = icmp ne i32 %23, 6
  br i1 %24, label %25, label %26

25:                                               ; preds = %17
  store i32 -22, ptr %4, align 4
  store i32 1, ptr %9, align 4
  br label %30

26:                                               ; preds = %17
  %27 = load ptr, ptr %8, align 8, !tbaa !74
  %28 = getelementptr inbounds nuw %struct.H264RawSEI, ptr %27, i32 0, i32 1
  %29 = load ptr, ptr %7, align 8, !tbaa !72
  store ptr %28, ptr %29, align 8, !tbaa !29
  store i32 0, ptr %9, align 4
  br label %30

30:                                               ; preds = %26, %25
  call void @llvm.lifetime.end.p0(i64 8, ptr %8) #7
  %31 = load i32, ptr %9, align 4
  switch i32 %31, label %79 [
    i32 0, label %32
    i32 1, label %77
  ]

32:                                               ; preds = %30
  br label %76

33:                                               ; preds = %3
  call void @llvm.lifetime.start.p0(i64 8, ptr %10) #7
  %34 = load ptr, ptr %6, align 8, !tbaa !41
  %35 = getelementptr inbounds nuw %struct.CodedBitstreamUnit, ptr %34, i32 0, i32 5
  %36 = load ptr, ptr %35, align 8, !tbaa !65
  store ptr %36, ptr %10, align 8, !tbaa !76
  %37 = load ptr, ptr %6, align 8, !tbaa !41
  %38 = getelementptr inbounds nuw %struct.CodedBitstreamUnit, ptr %37, i32 0, i32 0
  %39 = load i32, ptr %38, align 8, !tbaa !58
  %40 = icmp ne i32 %39, 39
  br i1 %40, label %41, label %47

41:                                               ; preds = %33
  %42 = load ptr, ptr %6, align 8, !tbaa !41
  %43 = getelementptr inbounds nuw %struct.CodedBitstreamUnit, ptr %42, i32 0, i32 0
  %44 = load i32, ptr %43, align 8, !tbaa !58
  %45 = icmp ne i32 %44, 40
  br i1 %45, label %46, label %47

46:                                               ; preds = %41
  store i32 -22, ptr %4, align 4
  store i32 1, ptr %9, align 4
  br label %51

47:                                               ; preds = %41, %33
  %48 = load ptr, ptr %10, align 8, !tbaa !76
  %49 = getelementptr inbounds nuw %struct.H265RawSEI, ptr %48, i32 0, i32 1
  %50 = load ptr, ptr %7, align 8, !tbaa !72
  store ptr %49, ptr %50, align 8, !tbaa !29
  store i32 0, ptr %9, align 4
  br label %51

51:                                               ; preds = %47, %46
  call void @llvm.lifetime.end.p0(i64 8, ptr %10) #7
  %52 = load i32, ptr %9, align 4
  switch i32 %52, label %79 [
    i32 0, label %53
    i32 1, label %77
  ]

53:                                               ; preds = %51
  br label %76

54:                                               ; preds = %3
  call void @llvm.lifetime.start.p0(i64 8, ptr %11) #7
  %55 = load ptr, ptr %6, align 8, !tbaa !41
  %56 = getelementptr inbounds nuw %struct.CodedBitstreamUnit, ptr %55, i32 0, i32 5
  %57 = load ptr, ptr %56, align 8, !tbaa !65
  store ptr %57, ptr %11, align 8, !tbaa !78
  %58 = load ptr, ptr %6, align 8, !tbaa !41
  %59 = getelementptr inbounds nuw %struct.CodedBitstreamUnit, ptr %58, i32 0, i32 0
  %60 = load i32, ptr %59, align 8, !tbaa !58
  %61 = icmp ne i32 %60, 23
  br i1 %61, label %62, label %68

62:                                               ; preds = %54
  %63 = load ptr, ptr %6, align 8, !tbaa !41
  %64 = getelementptr inbounds nuw %struct.CodedBitstreamUnit, ptr %63, i32 0, i32 0
  %65 = load i32, ptr %64, align 8, !tbaa !58
  %66 = icmp ne i32 %65, 24
  br i1 %66, label %67, label %68

67:                                               ; preds = %62
  store i32 -22, ptr %4, align 4
  store i32 1, ptr %9, align 4
  br label %72

68:                                               ; preds = %62, %54
  %69 = load ptr, ptr %11, align 8, !tbaa !78
  %70 = getelementptr inbounds nuw %struct.H266RawSEI, ptr %69, i32 0, i32 1
  %71 = load ptr, ptr %7, align 8, !tbaa !72
  store ptr %70, ptr %71, align 8, !tbaa !29
  store i32 0, ptr %9, align 4
  br label %72

72:                                               ; preds = %68, %67
  call void @llvm.lifetime.end.p0(i64 8, ptr %11) #7
  %73 = load i32, ptr %9, align 4
  switch i32 %73, label %79 [
    i32 0, label %74
    i32 1, label %77
  ]

74:                                               ; preds = %72
  br label %76

75:                                               ; preds = %3
  store i32 -22, ptr %4, align 4
  br label %77

76:                                               ; preds = %74, %53, %32
  store i32 0, ptr %4, align 4
  br label %77

77:                                               ; preds = %76, %75, %72, %51, %30
  %78 = load i32, ptr %4, align 4
  ret i32 %78

79:                                               ; preds = %72, %51, %30
  unreachable
}

; Function Attrs: nounwind uwtable
define i32 @ff_cbs_sei_find_message(ptr noundef %0, ptr noundef %1, i32 noundef %2, ptr noundef %3) #0 {
  %5 = alloca i32, align 4
  %6 = alloca ptr, align 8
  %7 = alloca ptr, align 8
  %8 = alloca i32, align 4
  %9 = alloca ptr, align 8
  %10 = alloca i32, align 4
  %11 = alloca i32, align 4
  %12 = alloca i32, align 4
  %13 = alloca i32, align 4
  %14 = alloca ptr, align 8
  %15 = alloca ptr, align 8
  %16 = alloca i32, align 4
  %17 = alloca ptr, align 8
  store ptr %0, ptr %6, align 8, !tbaa !37
  store ptr %1, ptr %7, align 8, !tbaa !39
  store i32 %2, ptr %8, align 4, !tbaa !27
  store ptr %3, ptr %9, align 8, !tbaa !80
  call void @llvm.lifetime.start.p0(i64 4, ptr %10) #7
  call void @llvm.lifetime.start.p0(i64 4, ptr %11) #7
  call void @llvm.lifetime.start.p0(i64 4, ptr %12) #7
  call void @llvm.lifetime.start.p0(i64 4, ptr %13) #7
  store i32 0, ptr %13, align 4, !tbaa !27
  store i32 0, ptr %11, align 4, !tbaa !27
  br label %18

18:                                               ; preds = %84, %4
  %19 = load i32, ptr %11, align 4, !tbaa !27
  %20 = load ptr, ptr %7, align 8, !tbaa !39
  %21 = getelementptr inbounds nuw %struct.CodedBitstreamFragment, ptr %20, i32 0, i32 4
  %22 = load i32, ptr %21, align 8, !tbaa !54
  %23 = icmp slt i32 %19, %22
  br i1 %23, label %24, label %87

24:                                               ; preds = %18
  call void @llvm.lifetime.start.p0(i64 8, ptr %14) #7
  %25 = load ptr, ptr %7, align 8, !tbaa !39
  %26 = getelementptr inbounds nuw %struct.CodedBitstreamFragment, ptr %25, i32 0, i32 6
  %27 = load ptr, ptr %26, align 8, !tbaa !57
  %28 = load i32, ptr %11, align 4, !tbaa !27
  %29 = sext i32 %28 to i64
  %30 = getelementptr inbounds %struct.CodedBitstreamUnit, ptr %27, i64 %29
  store ptr %30, ptr %14, align 8, !tbaa !41
  call void @llvm.lifetime.start.p0(i64 8, ptr %15) #7
  %31 = load ptr, ptr %6, align 8, !tbaa !37
  %32 = load ptr, ptr %14, align 8, !tbaa !41
  %33 = call i32 @cbs_sei_get_message_list(ptr noundef %31, ptr noundef %32, ptr noundef %15)
  store i32 %33, ptr %10, align 4, !tbaa !27
  %34 = load i32, ptr %10, align 4, !tbaa !27
  %35 = icmp slt i32 %34, 0
  br i1 %35, label %36, label %37

36:                                               ; preds = %24
  store i32 4, ptr %16, align 4
  br label %81

37:                                               ; preds = %24
  store i32 0, ptr %12, align 4, !tbaa !27
  br label %38

38:                                               ; preds = %77, %37
  %39 = load i32, ptr %12, align 4, !tbaa !27
  %40 = load ptr, ptr %15, align 8, !tbaa !29
  %41 = getelementptr inbounds nuw %struct.SEIRawMessageList, ptr %40, i32 0, i32 1
  %42 = load i32, ptr %41, align 8, !tbaa !33
  %43 = icmp slt i32 %39, %42
  br i1 %43, label %44, label %80

44:                                               ; preds = %38
  call void @llvm.lifetime.start.p0(i64 8, ptr %17) #7
  %45 = load ptr, ptr %15, align 8, !tbaa !29
  %46 = getelementptr inbounds nuw %struct.SEIRawMessageList, ptr %45, i32 0, i32 0
  %47 = load ptr, ptr %46, align 8, !tbaa !34
  %48 = load i32, ptr %12, align 4, !tbaa !27
  %49 = sext i32 %48 to i64
  %50 = getelementptr inbounds %struct.SEIRawMessage, ptr %47, i64 %49
  store ptr %50, ptr %17, align 8, !tbaa !4
  %51 = load ptr, ptr %17, align 8, !tbaa !4
  %52 = getelementptr inbounds nuw %struct.SEIRawMessage, ptr %51, i32 0, i32 0
  %53 = load i32, ptr %52, align 8, !tbaa !19
  %54 = load i32, ptr %8, align 4, !tbaa !27
  %55 = icmp eq i32 %53, %54
  br i1 %55, label %56, label %73

56:                                               ; preds = %44
  %57 = load ptr, ptr %9, align 8, !tbaa !80
  %58 = load ptr, ptr %57, align 8, !tbaa !4
  %59 = icmp ne ptr %58, null
  br i1 %59, label %60, label %63

60:                                               ; preds = %56
  %61 = load i32, ptr %13, align 4, !tbaa !27
  %62 = icmp ne i32 %61, 0
  br i1 %62, label %63, label %66

63:                                               ; preds = %60, %56
  %64 = load ptr, ptr %17, align 8, !tbaa !4
  %65 = load ptr, ptr %9, align 8, !tbaa !80
  store ptr %64, ptr %65, align 8, !tbaa !4
  store i32 0, ptr %5, align 4
  store i32 1, ptr %16, align 4
  br label %74

66:                                               ; preds = %60
  %67 = load ptr, ptr %17, align 8, !tbaa !4
  %68 = load ptr, ptr %9, align 8, !tbaa !80
  %69 = load ptr, ptr %68, align 8, !tbaa !4
  %70 = icmp eq ptr %67, %69
  br i1 %70, label %71, label %72

71:                                               ; preds = %66
  store i32 1, ptr %13, align 4, !tbaa !27
  br label %72

72:                                               ; preds = %71, %66
  br label %73

73:                                               ; preds = %72, %44
  store i32 0, ptr %16, align 4
  br label %74

74:                                               ; preds = %73, %63
  call void @llvm.lifetime.end.p0(i64 8, ptr %17) #7
  %75 = load i32, ptr %16, align 4
  switch i32 %75, label %81 [
    i32 0, label %76
  ]

76:                                               ; preds = %74
  br label %77

77:                                               ; preds = %76
  %78 = load i32, ptr %12, align 4, !tbaa !27
  %79 = add nsw i32 %78, 1
  store i32 %79, ptr %12, align 4, !tbaa !27
  br label %38, !llvm.loop !82

80:                                               ; preds = %38
  store i32 0, ptr %16, align 4
  br label %81

81:                                               ; preds = %80, %74, %36
  call void @llvm.lifetime.end.p0(i64 8, ptr %15) #7
  call void @llvm.lifetime.end.p0(i64 8, ptr %14) #7
  %82 = load i32, ptr %16, align 4
  switch i32 %82, label %88 [
    i32 0, label %83
    i32 4, label %84
  ]

83:                                               ; preds = %81
  br label %84

84:                                               ; preds = %83, %81
  %85 = load i32, ptr %11, align 4, !tbaa !27
  %86 = add nsw i32 %85, 1
  store i32 %86, ptr %11, align 4, !tbaa !27
  br label %18, !llvm.loop !83

87:                                               ; preds = %18
  store i32 -2, ptr %5, align 4
  store i32 1, ptr %16, align 4
  br label %88

88:                                               ; preds = %87, %81
  call void @llvm.lifetime.end.p0(i64 4, ptr %13) #7
  call void @llvm.lifetime.end.p0(i64 4, ptr %12) #7
  call void @llvm.lifetime.end.p0(i64 4, ptr %11) #7
  call void @llvm.lifetime.end.p0(i64 4, ptr %10) #7
  %89 = load i32, ptr %5, align 4
  ret i32 %89
}