; Function Attrs: nofree norecurse nosync nounwind memory(read, argmem: readwrite, inaccessiblemem: none) uwtable
define range(i32 -2, 1) i32 @ff_cbs_sei_find_message(ptr noundef readonly captures(none) %0, ptr noundef readonly captures(none) %1, i32 noundef %2, ptr noundef captures(none) %3) local_unnamed_addr #4 {
  %5 = getelementptr inbounds nuw i8, ptr %1, i64 32
  %6 = load i32, ptr %5, align 8, !tbaa !32
  %7 = icmp sgt i32 %6, 0
  br i1 %7, label %.lr.ph50, label %.loopexit

.lr.ph50:                                         ; preds = %4
  %8 = getelementptr inbounds nuw i8, ptr %1, i64 40
  %9 = load ptr, ptr %8, align 8, !tbaa !36
  %10 = getelementptr i8, ptr %0, i64 8
  %.val = load ptr, ptr %10, align 8, !tbaa !24
  %.val.val = load i32, ptr %.val, align 8, !tbaa !28
  %wide.trip.count56 = zext nneg i32 %6 to i64
  br label %11

11:                                               ; preds = %.lr.ph50, %cbs_sei_get_message_list.exit.thread
  %indvars.iv53 = phi i64 [ 0, %.lr.ph50 ], [ %indvars.iv.next54, %cbs_sei_get_message_list.exit.thread ]
  %.02548 = phi i32 [ 0, %.lr.ph50 ], [ %.126.ph, %cbs_sei_get_message_list.exit.thread ]
  %12 = getelementptr inbounds nuw %struct.CodedBitstreamUnit, ptr %9, i64 %indvars.iv53
  switch i32 %.val.val, label %cbs_sei_get_message_list.exit.thread [
    i32 27, label %13
    i32 173, label %15
    i32 196, label %17
  ]

13:                                               ; preds = %11
  %14 = load i32, ptr %12, align 8, !tbaa !38
  %.not25.not.i = icmp eq i32 %14, 6
  br i1 %.not25.not.i, label %cbs_sei_get_message_list.exit, label %cbs_sei_get_message_list.exit.thread

15:                                               ; preds = %11
  %16 = load i32, ptr %12, align 8, !tbaa !38
  %.off.i = add i32 %16, -39
  %switch30.i = icmp ult i32 %.off.i, 2
  br i1 %switch30.i, label %cbs_sei_get_message_list.exit, label %cbs_sei_get_message_list.exit.thread

17:                                               ; preds = %11
  %18 = load i32, ptr %12, align 8, !tbaa !38
  %.off31.i = add i32 %18, -23
  %switch32.i = icmp ult i32 %.off31.i, 2
  br i1 %switch32.i, label %cbs_sei_get_message_list.exit, label %cbs_sei_get_message_list.exit.thread

cbs_sei_get_message_list.exit:                    ; preds = %13, %15, %17
  %19 = getelementptr inbounds nuw i8, ptr %12, i64 40
  %20 = load ptr, ptr %19, align 8, !tbaa !42
  %21 = getelementptr inbounds nuw i8, ptr %20, i64 16
  %22 = load i32, ptr %21, align 8, !tbaa !20
  %23 = icmp sgt i32 %22, 0
  br i1 %23, label %.lr.ph, label %cbs_sei_get_message_list.exit.thread

.lr.ph:                                           ; preds = %cbs_sei_get_message_list.exit
  %24 = getelementptr inbounds nuw i8, ptr %20, i64 8
  %25 = load ptr, ptr %24, align 8, !tbaa !21
  %wide.trip.count = zext nneg i32 %22 to i64
  br label %26

26:                                               ; preds = %.lr.ph, %36
  %indvars.iv = phi i64 [ 0, %.lr.ph ], [ %indvars.iv.next, %36 ]
  %.22747 = phi i32 [ %.02548, %.lr.ph ], [ %.429.ph, %36 ]
  %27 = getelementptr inbounds nuw %struct.SEIRawMessage, ptr %25, i64 %indvars.iv
  %28 = load i32, ptr %27, align 8, !tbaa !15
  %29 = icmp eq i32 %28, %2
  br i1 %29, label %30, label %36

30:                                               ; preds = %26
  %31 = load ptr, ptr %3, align 8, !tbaa !43
  %32 = icmp eq ptr %31, null
  %33 = icmp ne i32 %.22747, 0
  %or.cond = select i1 %32, i1 true, i1 %33
  br i1 %or.cond, label %37, label %34

34:                                               ; preds = %30
  %35 = icmp eq ptr %27, %31
  %spec.select = zext i1 %35 to i32
  br label %36

36:                                               ; preds = %34, %26
  %.429.ph = phi i32 [ %spec.select, %34 ], [ %.22747, %26 ]
  %indvars.iv.next = add nuw nsw i64 %indvars.iv, 1
  %exitcond.not = icmp eq i64 %indvars.iv.next, %wide.trip.count
  br i1 %exitcond.not, label %cbs_sei_get_message_list.exit.thread, label %26, !llvm.loop !44

37:                                               ; preds = %30
  store ptr %27, ptr %3, align 8, !tbaa !43
  br label %.loopexit

cbs_sei_get_message_list.exit.thread:             ; preds = %36, %cbs_sei_get_message_list.exit, %17, %15, %13, %11
  %.126.ph = phi i32 [ %.02548, %11 ], [ %.02548, %13 ], [ %.02548, %15 ], [ %.02548, %17 ], [ %.02548, %cbs_sei_get_message_list.exit ], [ %.429.ph, %36 ]
  %indvars.iv.next54 = add nuw nsw i64 %indvars.iv53, 1
  %exitcond57.not = icmp eq i64 %indvars.iv.next54, %wide.trip.count56
  br i1 %exitcond57.not, label %.loopexit, label %11, !llvm.loop !45

.loopexit:                                        ; preds = %cbs_sei_get_message_list.exit.thread, %4, %37
  %.4 = phi i32 [ 0, %37 ], [ -2, %4 ], [ -2, %cbs_sei_get_message_list.exit.thread ]
  ret i32 %.4
}